target datalayout = "e-m:e-p270:32:32-p271:32:32-p272:64:64-i64:64-i128:128-f80:128-n8:16:32:64-S128"
target triple = "x86_64-pc-linux-gnu"

%"class.Luau::CodeGen::BaseCodeGenContext" = type { ptr, %"struct.Luau::CodeGen::CodeAllocator", %"class.std::unique_ptr", ptr, i64, ptr, ptr, %"struct.Luau::CodeGen::NativeContext" }
%"struct.Luau::CodeGen::CodeAllocator" = type { ptr, ptr, ptr, ptr, ptr, %"class.std::vector", %"class.std::vector.0", i64, i64, ptr, ptr }
%"class.std::vector" = type { %"struct.std::_Vector_base" }
%"struct.std::_Vector_base" = type { %"struct.std::_Vector_base<unsigned char *, std::allocator<unsigned char *>>::_Vector_impl" }
%"struct.std::_Vector_base<unsigned char *, std::allocator<unsigned char *>>::_Vector_impl" = type { %"struct.std::_Vector_base<unsigned char *, std::allocator<unsigned char *>>::_Vector_impl_data" }
%"struct.std::_Vector_base<unsigned char *, std::allocator<unsigned char *>>::_Vector_impl_data" = type { ptr, ptr, ptr }
%"class.std::vector.0" = type { %"struct.std::_Vector_base.1" }
%"struct.std::_Vector_base.1" = type { %"struct.std::_Vector_base<void *, std::allocator<void *>>::_Vector_impl" }
%"struct.std::_Vector_base<void *, std::allocator<void *>>::_Vector_impl" = type { %"struct.std::_Vector_base<void *, std::allocator<void *>>::_Vector_impl_data" }
%"struct.std::_Vector_base<void *, std::allocator<void *>>::_Vector_impl_data" = type { ptr, ptr, ptr }
%"class.std::unique_ptr" = type { %"struct.std::__uniq_ptr_data" }
%"struct.std::__uniq_ptr_data" = type { %"class.std::__uniq_ptr_impl" }
%"class.std::__uniq_ptr_impl" = type { %"class.std::tuple" }
%"class.std::tuple" = type { %"struct.std::_Tuple_impl" }
%"struct.std::_Tuple_impl" = type { %"struct.std::_Head_base.6" }
%"struct.std::_Head_base.6" = type { ptr }
%"struct.Luau::CodeGen::NativeContext" = type { ptr, ptr, ptr, ptr, ptr, ptr, ptr, ptr, ptr, ptr, ptr, ptr, ptr, ptr, ptr, ptr, ptr, ptr, ptr, ptr, ptr, ptr, ptr, ptr, ptr, ptr, ptr, ptr, ptr, ptr, ptr, ptr, ptr, ptr, ptr, ptr, ptr, ptr, ptr, ptr, ptr, ptr, ptr, ptr, ptr, ptr, ptr, ptr, ptr, ptr, ptr, ptr, ptr, ptr, ptr, ptr, ptr, ptr, ptr, ptr, ptr, ptr, ptr, ptr, ptr, ptr, ptr, ptr, ptr, ptr, ptr, [256 x ptr] }
%struct.lua_State = type { i8, i8, i8, i8, i8, i8, i8, ptr, ptr, ptr, ptr, ptr, ptr, ptr, ptr, i32, i32, i16, i16, i32, ptr, ptr, ptr, ptr, ptr }
%struct.global_State = type { %struct.stringtable, ptr, ptr, i8, i8, ptr, ptr, ptr, i64, i64, i32, i32, i32, [40 x ptr], [40 x ptr], ptr, ptr, ptr, [256 x i64], ptr, %struct.UpVal, [11 x ptr], [11 x ptr], [21 x ptr], %struct.lua_TValue, %struct.lua_TValue, i32, ptr, i64, [4 x i64], %struct.lua_Callbacks, %struct.lua_ExecutionCallbacks, [128 x ptr], [128 x ptr], [128 x ptr], %struct.GCStats }
%struct.stringtable = type { ptr, i32, i32 }
%struct.UpVal = type { i8, i8, i8, i8, ptr, %union.anon }
%union.anon = type { %struct.anon }
%struct.anon = type { ptr, ptr, ptr }
%struct.lua_TValue = type { %union.Value, [1 x i32], i32 }
%union.Value = type { ptr }
%struct.lua_Callbacks = type { ptr, ptr, ptr, ptr, ptr, ptr, ptr, ptr, ptr, ptr }
%struct.lua_ExecutionCallbacks = type { ptr, ptr, ptr, ptr, ptr, ptr, ptr }
%struct.GCStats = type { [32 x i32], i32, i32, i64, i64, i64, double, double, double }

; Function Attrs: mustprogress nounwind uwtable
define internal noundef ptr @_ZN4Luau7CodeGenL17getCodeGenContextEP9lua_State(ptr noundef %0) #1 {
  %2 = alloca ptr, align 8
  store ptr %0, ptr %2, align 8, !tbaa !214
  %3 = load ptr, ptr %2, align 8, !tbaa !214
  %4 = getelementptr inbounds nuw %struct.lua_State, ptr %3, i32 0, i32 9
  %5 = load ptr, ptr %4, align 8, !tbaa !219
  %6 = getelementptr inbounds nuw %struct.global_State, ptr %5, i32 0, i32 31
  %7 = getelementptr inbounds nuw %struct.lua_ExecutionCallbacks, ptr %6, i32 0, i32 0
  %8 = load ptr, ptr %7, align 8, !tbaa !294
  ret ptr %8
}

; Function Attrs: mustprogress uwtable
define internal noundef zeroext i8 @_ZN4Luau7CodeGenL20userdataRemapperWrapEP9lua_StatePKcm(ptr noundef %0, ptr noundef %1, i64 noundef %2) #2 {
  %4 = alloca i8, align 1
  %5 = alloca ptr, align 8
  %6 = alloca ptr, align 8
  %7 = alloca i64, align 8
  %8 = alloca ptr, align 8
  %9 = alloca i8, align 1
  %10 = alloca i32, align 4
  store ptr %0, ptr %5, align 8, !tbaa !214
  store ptr %1, ptr %6, align 8, !tbaa !9
  store i64 %2, ptr %7, align 8, !tbaa !25
  call void @llvm.lifetime.start.p0(i64 8, ptr %8) #17
  %11 = load ptr, ptr %5, align 8, !tbaa !214
  %12 = call noundef ptr @_ZN4Luau7CodeGenL17getCodeGenContextEP9lua_State(ptr noundef %11) #17
  store ptr %12, ptr %8, align 8, !tbaa !23
  %13 = load ptr, ptr %8, align 8, !tbaa !23
  %14 = icmp ne ptr %13, null
  br i1 %14, label %15, label %37

15:                                               ; preds = %3
  call void @llvm.lifetime.start.p0(i64 1, ptr %9) #17
  %16 = load ptr, ptr %8, align 8, !tbaa !23
  %17 = getelementptr inbounds nuw %"class.Luau::CodeGen::BaseCodeGenContext", ptr %16, i32 0, i32 6
  %18 = load ptr, ptr %17, align 8, !tbaa !52
  %19 = load ptr, ptr %8, align 8, !tbaa !23
  %20 = getelementptr inbounds nuw %"class.Luau::CodeGen::BaseCodeGenContext", ptr %19, i32 0, i32 5
  %21 = load ptr, ptr %20, align 8, !tbaa !51
  %22 = load ptr, ptr %6, align 8, !tbaa !9
  %23 = load i64, ptr %7, align 8, !tbaa !25
  %24 = call noundef zeroext i8 %18(ptr noundef %21, ptr noundef %22, i64 noundef %23)
  store i8 %24, ptr %9, align 1, !tbaa !242
  %25 = load i8, ptr %9, align 1, !tbaa !242
  %26 = zext i8 %25 to i32
  %27 = icmp slt i32 %26, 32
  br i1 %27, label %28, label %33

28:                                               ; preds = %15
  %29 = load i8, ptr %9, align 1, !tbaa !242
  %30 = zext i8 %29 to i32
  %31 = add nsw i32 64, %30
  %32 = trunc i32 %31 to i8
  store i8 %32, ptr %4, align 1
  store i32 1, ptr %10, align 4
  br label %34

33:                                               ; preds = %15
  store i32 0, ptr %10, align 4
  br label %34

34:                                               ; preds = %33, %28
  call void @llvm.lifetime.end.p0(i64 1, ptr %9) #17
  %35 = load i32, ptr %10, align 4
  switch i32 %35, label %38 [
    i32 0, label %36
  ]

36:                                               ; preds = %34
  br label %37

37:                                               ; preds = %36, %3
  store i32 0, ptr %10, align 4
  br label %38

38:                                               ; preds = %37, %34
  call void @llvm.lifetime.end.p0(i64 8, ptr %8) #17
  %39 = load i32, ptr %10, align 4
  switch i32 %39, label %43 [
    i32 0, label %40
    i32 1, label %41
  ]

40:                                               ; preds = %38
  store i8 7, ptr %4, align 1
  br label %41

41:                                               ; preds = %40, %38
  %42 = load i8, ptr %4, align 1
  ret i8 %42

43:                                               ; preds = %38
  unreachable
}