; Function Attrs: mustprogress uwtable
define internal noundef zeroext range(i8 7, 96) i8 @_ZN4Luau7CodeGenL20userdataRemapperWrapEP9lua_StatePKcm(ptr noundef readonly captures(none) %0, ptr noundef %1, i64 noundef %2) #1 {
  %4 = getelementptr i8, ptr %0, i64 24
  %.val = load ptr, ptr %4, align 8, !tbaa !121
  %5 = getelementptr i8, ptr %.val, i64 3368
  %.val.val = load ptr, ptr %5, align 8, !tbaa !148
  %.not = icmp eq ptr %.val.val, null
  br i1 %.not, label %select.unfold, label %6

6:                                                ; preds = %3
  %7 = getelementptr inbounds nuw i8, ptr %.val.val, i64 160
  %8 = load ptr, ptr %7, align 8, !tbaa !318
  %9 = getelementptr inbounds nuw i8, ptr %.val.val, i64 152
  %10 = load ptr, ptr %9, align 8, !tbaa !317
  %11 = tail call noundef zeroext i8 %8(ptr noundef %10, ptr noundef %1, i64 noundef %2)
  %12 = icmp ugt i8 %11, 31
  %13 = or disjoint i8 %11, 64
  %spec.select = select i1 %12, i8 7, i8 %13
  br label %select.unfold

select.unfold:                                    ; preds = %6, %3
  %14 = phi i8 [ 7, %3 ], [ %spec.select, %6 ]
  ret i8 %14
}